; Function Attrs: mustprogress nofree norecurse nosync nounwind willreturn memory(argmem: readwrite) uwtable
define hidden range(i32 0, 5) i32 @png_get_cHRM_XYZ_fixed(ptr noalias noundef readnone %0, ptr noalias noundef readonly %1, ptr noundef writeonly %2, ptr noundef writeonly %3, ptr noundef writeonly %4, ptr noundef writeonly %5, ptr noundef writeonly %6, ptr noundef writeonly %7, ptr noundef writeonly %8, ptr noundef writeonly %9, ptr noundef writeonly %10) local_unnamed_addr #3 {
  %12 = icmp ne ptr %0, null
  %13 = icmp ne ptr %1, null
  %or.cond = and i1 %12, %13
  br i1 %or.cond, label %14, label %54

14:                                               ; preds = %11
  %15 = getelementptr inbounds i8, ptr %1, i64 126
  %16 = load i16, ptr %15, align 2
  %17 = and i16 %16, 2
  %.not = icmp eq i16 %17, 0
  br i1 %.not, label %54, label %18

18:                                               ; preds = %14
  %.not41 = icmp eq ptr %2, null
  br i1 %.not41, label %22, label %19

19:                                               ; preds = %18
  %20 = getelementptr inbounds i8, ptr %1, i64 88
  %21 = load i32, ptr %20, align 4
  store i32 %21, ptr %2, align 4
  br label %22

22:                                               ; preds = %19, %18
  %.not42 = icmp eq ptr %3, null
  br i1 %.not42, label %26, label %23

23:                                               ; preds = %22
  %24 = getelementptr inbounds i8, ptr %1, i64 92
  %25 = load i32, ptr %24, align 4
  store i32 %25, ptr %3, align 4
  br label %26

26:                                               ; preds = %23, %22
  %.not43 = icmp eq ptr %4, null
  br i1 %.not43, label %30, label %27

27:                                               ; preds = %26
  %28 = getelementptr inbounds i8, ptr %1, i64 96
  %29 = load i32, ptr %28, align 4
  store i32 %29, ptr %4, align 4
  br label %30

30:                                               ; preds = %27, %26
  %.not44 = icmp eq ptr %5, null
  br i1 %.not44, label %34, label %31

31:                                               ; preds = %30
  %32 = getelementptr inbounds i8, ptr %1, i64 100
  %33 = load i32, ptr %32, align 4
  store i32 %33, ptr %5, align 4
  br label %34

34:                                               ; preds = %31, %30
  %.not45 = icmp eq ptr %6, null
  br i1 %.not45, label %38, label %35

35:                                               ; preds = %34
  %36 = getelementptr inbounds i8, ptr %1, i64 104
  %37 = load i32, ptr %36, align 4
  store i32 %37, ptr %6, align 4
  br label %38

38:                                               ; preds = %35, %34
  %.not46 = icmp eq ptr %7, null
  br i1 %.not46, label %42, label %39

39:                                               ; preds = %38
  %40 = getelementptr inbounds i8, ptr %1, i64 108
  %41 = load i32, ptr %40, align 4
  store i32 %41, ptr %7, align 4
  br label %42

42:                                               ; preds = %39, %38
  %.not47 = icmp eq ptr %8, null
  br i1 %.not47, label %46, label %43

43:                                               ; preds = %42
  %44 = getelementptr inbounds i8, ptr %1, i64 112
  %45 = load i32, ptr %44, align 4
  store i32 %45, ptr %8, align 4
  br label %46

46:                                               ; preds = %43, %42
  %.not48 = icmp eq ptr %9, null
  br i1 %.not48, label %50, label %47

47:                                               ; preds = %46
  %48 = getelementptr inbounds i8, ptr %1, i64 116
  %49 = load i32, ptr %48, align 4
  store i32 %49, ptr %9, align 4
  br label %50

50:                                               ; preds = %47, %46
  %.not49 = icmp eq ptr %10, null
  br i1 %.not49, label %54, label %51

51:                                               ; preds = %50
  %52 = getelementptr inbounds i8, ptr %1, i64 120
  %53 = load i32, ptr %52, align 4
  store i32 %53, ptr %10, align 4
  br label %54

54:                                               ; preds = %11, %14, %50, %51
  %.0 = phi i32 [ 4, %51 ], [ 4, %50 ], [ 0, %14 ], [ 0, %11 ]
  ret i32 %.0
}